(dp0
S'yes'
p1
(lp2
(dp3
S'management'
p4
I131
sS'retired'
p5
I54
sS'self-employed'
p6
I20
sS'unknown'
p7
I7
sS'unemployed'
p8
I13
sS'housemaid'
p9
I14
sS'admin.'
p10
I58
sS'services'
p11
I38
sS'student'
p12
I19
sS'technician'
p13
I83
sS'entrepreneur'
p14
I15
sS'blue-collar'
p15
I69
sa(dp16
S'single'
p17
I167
sS'married'
p18
I277
sS'divorced'
p19
I77
sa(dp20
S'unknown'
p21
I19
sS'primary'
p22
I64
sS'tertiary'
p23
I193
sS'secondary'
p24
I245
sa(dp25
S'yes'
p26
I9
sS'no'
p27
I512
sa(dp28
S'yes'
p29
I220
sS'no'
p30
I301
sa(dp31
S'yes'
p32
I43
sS'no'
p33
I478
sa(dp34
S'unknown'
p35
I61
sS'telephone'
p36
I44
sS'cellular'
p37
I416
sa(dp38
S'mar'
p39
I21
sS'feb'
p40
I38
sS'aug'
p41
I79
sS'sep'
p42
I17
sS'apr'
p43
I56
sS'jun'
p44
I55
sS'jul'
p45
I61
sS'jan'
p46
I16
sS'may'
p47
I93
sS'nov'
p48
I39
sS'dec'
p49
I9
sS'oct'
p50
I37
sa(dp51
S'unknown'
p52
I337
sS'other'
p53
I38
sS'success'
p54
I83
sS'failure'
p55
I63
sasS'no'
p56
(lp57
(dp58
S'management'
p59
I838
sS'retired'
p60
I176
sS'self-employed'
p61
I163
sS'unknown'
p62
I31
sS'unemployed'
p63
I115
sS'housemaid'
p64
I98
sS'admin.'
p65
I420
sS'technician'
p66
I685
sS'student'
p67
I65
sS'services'
p68
I379
sS'entrepreneur'
p69
I153
sS'blue-collar'
p70
I877
sa(dp71
S'single'
p72
I1029
sS'married'
p73
I2520
sS'divorced'
p74
I451
sa(dp75
S'unknown'
p76
I168
sS'primary'
p77
I614
sS'tertiary'
p78
I1157
sS'secondary'
p79
I2061
sa(dp80
S'yes'
p81
I67
sS'no'
p82
I3933
sa(dp83
S'yes'
p84
I2339
sS'no'
p85
I1661
sa(dp86
S'yes'
p87
I648
sS'no'
p88
I3352
sa(dp89
S'unknown'
p90
I1263
sS'telephone'
p91
I257
sS'cellular'
p92
I2480
sa(dp93
S'mar'
p94
I28
sS'feb'
p95
I184
sS'aug'
p96
I554
sS'sep'
p97
I35
sS'may'
p98
I1305
sS'jun'
p99
I476
sS'jul'
p100
I645
sS'jan'
p101
I132
sS'apr'
p102
I237
sS'nov'
p103
I350
sS'dec'
p104
I11
sS'oct'
p105
I43
sa(dp106
S'unknown'
p107
I3368
sS'other'
p108
I159
sS'success'
p109
I46
sS'failure'
p110
I427
sas.