(dp0
S'yes'
p1
(lp2
(dp3
S'management'
p4
F0.25239005736137665
sS'retired'
p5
F0.10516252390057361
sS'self-employed'
p6
F0.040152963671128104
sS'unknown'
p7
F0.015296367112810707
sS'unemployed'
p8
F0.02676864244741874
sS'admin.'
p9
F0.11281070745697896
sS'technician'
p10
F0.16061185468451242
sS'services'
p11
F0.0745697896749522
sS'student'
p12
F0.03824091778202677
sS'housemaid'
p13
F0.028680688336520075
sS'entrepreneur'
p14
F0.030592734225621414
sS'blue-collar'
p15
F0.1338432122370937
sa(dp16
S'single'
p17
F0.32122370936902483
sS'married'
p18
F0.5315487571701721
sS'divorced'
p19
F0.1491395793499044
sa(dp20
S'unknown'
p21
F0.03824091778202677
sS'primary'
p22
F0.124282982791587
sS'tertiary'
p23
F0.37093690248565964
sS'secondary'
p24
F0.47036328871892924
sa(dp25
S'yes'
p26
F0.019120458891013385
sS'no'
p27
F0.9808795411089866
sa(dp28
S'yes'
p29
F0.4225621414913958
sS'no'
p30
F0.5774378585086042
sa(dp31
S'yes'
p32
F0.0841300191204589
sS'no'
p33
F0.9158699808795411
sa(dp34
S'unknown'
p35
F0.11854684512428298
sS'telephone'
p36
F0.08604206500956023
sS'cellular'
p37
F0.7973231357552581
sa(dp38
S'mar'
p39
F0.04206500956022945
sS'feb'
p40
F0.0745697896749522
sS'aug'
p41
F0.15296367112810708
sS'sep'
p42
F0.03441682600382409
sS'apr'
p43
F0.1089866156787763
sS'jun'
p44
F0.10707456978967496
sS'jul'
p45
F0.11854684512428298
sS'jan'
p46
F0.032504780114722756
sS'may'
p47
F0.17973231357552583
sS'nov'
p48
F0.07648183556405354
sS'dec'
p49
F0.019120458891013385
sS'oct'
p50
F0.07265774378585087
sa(dp51
S'unknown'
p52
F0.6462715105162524
sS'other'
p53
F0.0745697896749522
sS'success'
p54
F0.16061185468451242
sS'failure'
p55
F0.12237093690248566
sasS'no'
p56
(lp57
(dp58
S'management'
p59
F0.20964517741129435
sS'retired'
p60
F0.04422788605697151
sS'self-employed'
p61
F0.04097951024487756
sS'unknown'
p62
F0.0079960019990005
sS'unemployed'
p63
F0.028985507246376812
sS'admin.'
p64
F0.10519740129935032
sS'technician'
p65
F0.1714142928535732
sS'services'
p66
F0.09495252373813093
sS'student'
p67
F0.01649175412293853
sS'housemaid'
p68
F0.024737631184407798
sS'entrepreneur'
p69
F0.0384807596201899
sS'blue-collar'
p70
F0.2193903048475762
sa(dp71
S'single'
p72
F0.25737131434282856
sS'married'
p73
F0.6299350324837582
sS'divorced'
p74
F0.11294352823588207
sa(dp75
S'unknown'
p76
F0.04222888555722139
sS'primary'
p77
F0.15367316341829085
sS'tertiary'
p78
F0.2893553223388306
sS'secondary'
p79
F0.5152423788105946
sa(dp80
S'yes'
p81
F0.01699150424787606
sS'no'
p82
F0.9830084957521239
sa(dp83
S'yes'
p84
F0.5847076461769115
sS'no'
p85
F0.41529235382308843
sa(dp86
S'yes'
p87
F0.1621689155422289
sS'no'
p88
F0.8378310844577711
sa(dp89
S'unknown'
p90
F0.31584207896051975
sS'telephone'
p91
F0.06446776611694154
sS'cellular'
p92
F0.6199400299850075
sa(dp93
S'mar'
p94
F0.007246376811594203
sS'feb'
p95
F0.046226886556721636
sS'aug'
p96
F0.1386806596701649
sS'sep'
p97
F0.008995502248875561
sS'may'
p98
F0.3263368315842079
sS'jun'
p99
F0.1191904047976012
sS'jul'
p100
F0.16141929035482258
sS'jan'
p101
F0.033233383308345826
sS'apr'
p102
F0.059470264867566215
sS'nov'
p103
F0.08770614692653673
sS'dec'
p104
F0.0029985007496251873
sS'oct'
p105
F0.010994502748625687
sa(dp106
S'unknown'
p107
F0.8418290854572713
sS'other'
p108
F0.0399800099950025
sS'success'
p109
F0.011744127936031985
sS'failure'
p110
F0.10694652673663169
sas.